Certificate:
    Data:
        Version: 3 (0x2)
        Serial Number:
            84:68:c4:73:39:68:a3:84
    Signature Algorithm: sha1WithRSAEncryption
        Issuer: C=JP, ST=Gunma, O=Yoshikuni, CN=oreoreCA
        Validity
            Not Before: Dec 29 02:58:49 2014 GMT
            Not After : Dec 29 02:58:49 2015 GMT
        Subject: C=JP, ST=Gunma, L=test_ASN_1, O=test_ASN_1, OU=test_ASN_1, CN=test_ASN_1/emailAddress=test_ASN_1
        Subject Public Key Info:
            Public Key Algorithm: rsaEncryption
                Public-Key: (2048 bit)
                Modulus:
                    00:c0:79:52:8d:95:eb:63:1b:8c:5c:e3:ed:a9:0d:
                    b7:8e:e9:75:87:59:5f:6e:70:2d:b9:6d:91:cc:ec:
                    c4:3a:98:5c:3d:ef:9c:ba:b4:4e:5c:52:67:20:a9:
                    02:99:d1:29:57:36:4c:e0:7f:03:a8:71:18:84:1f:
                    4c:67:71:a9:58:e4:27:5f:ff:9a:bc:bc:f1:ef:47:
                    10:53:be:33:da:79:4b:1f:01:9b:91:b9:eb:52:bd:
                    14:c9:a5:d4:f9:b4:54:a4:fc:6f:6b:bc:a7:63:41:
                    90:18:ff:e0:64:df:80:73:7c:c5:2f:c1:83:86:d7:
                    3f:f6:d8:65:bb:37:43:7b:e2:59:43:b0:7e:ce:fa:
                    5e:94:fe:13:78:1f:02:23:a0:92:59:9a:09:b9:50:
                    81:ef:eb:44:50:af:e6:52:80:75:cf:c8:4b:6d:cc:
                    ca:80:40:ba:fa:50:45:aa:be:cc:8f:5f:7f:b1:f5:
                    30:c5:09:30:1b:7e:25:3b:31:a8:58:ff:74:6b:c8:
                    70:13:fc:11:54:a2:b0:19:b3:df:27:9b:d4:30:88:
                    56:a4:44:67:ef:e5:30:c9:e5:a0:57:b2:81:32:0b:
                    2a:ca:d3:5b:5f:37:ac:3d:ce:cc:83:f2:c6:46:99:
                    51:3e:ff:96:96:ac:83:83:5d:51:34:44:d2:eb:aa:
                    b4:db
                Exponent: 65537 (0x10001)
        X509v3 extensions:
            X509v3 Basic Constraints: 
                CA:FALSE
            Netscape Comment: 
                OpenSSL Generated Certificate
            X509v3 Subject Key Identifier: 
                3D:8E:11:A2:83:E2:4C:50:5F:0C:DE:1C:4C:4A:51:30:E5:DC:85:6A
            X509v3 Authority Key Identifier: 
                keyid:1A:16:A3:D4:FC:12:AA:37:99:70:13:80:B1:CA:1C:97:41:4E:A1:88

    Signature Algorithm: sha1WithRSAEncryption
         6d:64:e2:7c:d6:f5:99:b2:98:0d:d2:91:a7:b8:6e:2a:5f:e4:
         6f:27:46:08:47:a8:d9:ee:0e:34:1f:e9:2a:e9:5d:fe:5e:a1:
         db:3c:5d:d3:dc:83:1e:45:7b:3c:f1:a7:27:46:a2:d5:fa:ee:
         85:bf:c6:9e:29:69:eb:42:25:6c:ae:d8:a6:cb:87:a3:22:e7:
         1f:06:52:c8:39:91:b7:01:4b:cf:10:74:fe:83:45:18:c4:6d:
         b7:11:fe:e6:f4:09:e5:be:23:48:c5:02:7f:dc:19:e4:c1:bd:
         90:ac:f8:66:b0:ec:8d:ec:c8:68:9c:32:5c:4d:ef:c8:9b:ba:
         06:ac
-----BEGIN CERTIFICATE-----
MIIDTjCCAregAwIBAgIJAIRoxHM5aKOEMA0GCSqGSIb3DQEBBQUAMEQxCzAJBgNV
BAYTAkpQMQ4wDAYDVQQIDAVHdW5tYTESMBAGA1UECgwJWW9zaGlrdW5pMREwDwYD
VQQDDAhvcmVvcmVDQTAeFw0xNDEyMjkwMjU4NDlaFw0xNTEyMjkwMjU4NDlaMIGM
MQswCQYDVQQGEwJKUDEOMAwGA1UECAwFR3VubWExEzARBgNVBAcMCnRlc3RfQVNO
XzExEzARBgNVBAoMCnRlc3RfQVNOXzExEzARBgNVBAsMCnRlc3RfQVNOXzExEzAR
BgNVBAMMCnRlc3RfQVNOXzExGTAXBgkqhkiG9w0BCQEWCnRlc3RfQVNOXzEwggEi
MA0GCSqGSIb3DQEBAQUAA4IBDwAwggEKAoIBAQDAeVKNletjG4xc4+2pDbeO6XWH
WV9ucC25bZHM7MQ6mFw975y6tE5cUmcgqQKZ0SlXNkzgfwOocRiEH0xncalY5Cdf
/5q8vPHvRxBTvjPaeUsfAZuRuetSvRTJpdT5tFSk/G9rvKdjQZAY/+Bk34BzfMUv
wYOG1z/22GW7N0N74llDsH7O+l6U/hN4HwIjoJJZmgm5UIHv60RQr+ZSgHXPyEtt
zMqAQLr6UEWqvsyPX3+x9TDFCTAbfiU7MahY/3RryHAT/BFUorAZs98nm9QwiFak
RGfv5TDJ5aBXsoEyCyrK01tfN6w9zsyD8sZGmVE+/5aWrIODXVE0RNLrqrTbAgMB
AAGjezB5MAkGA1UdEwQCMAAwLAYJYIZIAYb4QgENBB8WHU9wZW5TU0wgR2VuZXJh
dGVkIENlcnRpZmljYXRlMB0GA1UdDgQWBBQ9jhGig+JMUF8M3hxMSlEw5dyFajAf
BgNVHSMEGDAWgBQaFqPU/BKqN5lwE4CxyhyXQU6hiDANBgkqhkiG9w0BAQUFAAOB
gQBtZOJ81vWZspgN0pGnuG4qX+RvJ0YIR6jZ7g40H+kq6V3+XqHbPF3T3IMeRXs8
8acnRqLV+u6Fv8aeKWnrQiVsrtimy4ejIucfBlLIOZG3AUvPEHT+g0UYxG23Ef7m
9AnlviNIxQJ/3Bnkwb2QrPhmsOyN7MhonDJcTe/Im7oGrA==
-----END CERTIFICATE-----
